; Function Attrs: mustprogress nofree norecurse nosync nounwind willreturn memory(argmem: read) uwtable
define i64 @_ZNK10open_spiel5maedn10MaednState19GetFieldsFromActionElii(ptr noundef nonnull readonly align 8 captures(none) dereferenceable(160) %0, i64 noundef %1, i32 noundef %2, i32 noundef %3) local_unnamed_addr #8 align 2 {
  %5 = getelementptr inbounds nuw i8, ptr %0, i64 28
  %6 = load i32, ptr %5, align 4
  %7 = icmp eq i32 %6, 2
  br i1 %7, label %8, label %_ZNK10open_spiel5maedn10MaednState16PlayerToPositionEi.exit

8:                                                ; preds = %4
  %9 = getelementptr inbounds nuw i8, ptr %0, i64 68
  %10 = load i8, ptr %9, align 4
  %11 = trunc i8 %10 to i1
  %12 = add i32 %2, -1
  %or.cond.i = icmp ult i32 %12, 2
  %or.cond5.i = and i1 %or.cond.i, %11
  %13 = sub nuw nsw i32 3, %2
  %spec.select.i = select i1 %or.cond5.i, i32 %13, i32 %2
  br label %_ZNK10open_spiel5maedn10MaednState16PlayerToPositionEi.exit

_ZNK10open_spiel5maedn10MaednState16PlayerToPositionEi.exit: ; preds = %4, %8
  %14 = phi i32 [ %2, %4 ], [ %spec.select.i, %8 ]
  %15 = trunc i64 %1 to i32
  %16 = add i32 %15, -2
  %17 = add nsw i32 %16, %3
  %18 = icmp slt i32 %16, 40
  br i1 %18, label %19, label %23

19:                                               ; preds = %_ZNK10open_spiel5maedn10MaednState16PlayerToPositionEi.exit
  %20 = mul nsw i32 %14, 10
  %21 = add nsw i32 %20, %16
  %22 = srem i32 %21, 40
  br label %_ZNK10open_spiel5maedn10MaednState14RelPosToAbsPosEii.exit

23:                                               ; preds = %_ZNK10open_spiel5maedn10MaednState16PlayerToPositionEi.exit
  %24 = shl nsw i32 %14, 2
  %25 = add nsw i32 %24, %16
  br label %_ZNK10open_spiel5maedn10MaednState14RelPosToAbsPosEii.exit

_ZNK10open_spiel5maedn10MaednState14RelPosToAbsPosEii.exit: ; preds = %19, %23
  %.0.i = phi i32 [ %22, %19 ], [ %25, %23 ]
  %26 = icmp slt i32 %17, 40
  br i1 %26, label %27, label %31

27:                                               ; preds = %_ZNK10open_spiel5maedn10MaednState14RelPosToAbsPosEii.exit
  %28 = mul nsw i32 %14, 10
  %29 = add nsw i32 %28, %17
  %30 = srem i32 %29, 40
  br label %_ZNK10open_spiel5maedn10MaednState14RelPosToAbsPosEii.exit9

31:                                               ; preds = %_ZNK10open_spiel5maedn10MaednState14RelPosToAbsPosEii.exit
  %32 = shl nsw i32 %14, 2
  %33 = add nsw i32 %32, %17
  br label %_ZNK10open_spiel5maedn10MaednState14RelPosToAbsPosEii.exit9

_ZNK10open_spiel5maedn10MaednState14RelPosToAbsPosEii.exit9: ; preds = %27, %31
  %.0.i8 = phi i32 [ %30, %27 ], [ %33, %31 ]
  %.sroa.2.0.insert.ext = zext i32 %.0.i8 to i64
  %.sroa.2.0.insert.shift = shl nuw i64 %.sroa.2.0.insert.ext, 32
  %.sroa.0.0.insert.ext = zext i32 %.0.i to i64
  %.sroa.0.0.insert.insert = or disjoint i64 %.sroa.2.0.insert.shift, %.sroa.0.0.insert.ext
  ret i64 %.sroa.0.0.insert.insert
}